; Function Attrs: nofree norecurse nosync nounwind memory(argmem: readwrite) uwtable
define hidden void @aom_horizontal_line_5_4_scale_c(ptr noundef readonly %0, i32 noundef %1, ptr noundef writeonly captures(none) %2, i32 noundef %3) local_unnamed_addr #0 {
  %5 = zext i32 %1 to i64
  %6 = getelementptr inbounds nuw i8, ptr %0, i64 %5
  %.not = icmp eq i32 %1, 0
  br i1 %.not, label %._crit_edge, label %.lr.ph

.lr.ph:                                           ; preds = %4, %.lr.ph
  %.023 = phi ptr [ %40, %.lr.ph ], [ %0, %4 ]
  %.02122 = phi ptr [ %41, %.lr.ph ], [ %2, %4 ]
  %7 = load i8, ptr %.023, align 1
  %8 = getelementptr inbounds nuw i8, ptr %.023, i64 1
  %9 = load i8, ptr %8, align 1
  %10 = zext i8 %9 to i32
  %11 = getelementptr inbounds nuw i8, ptr %.023, i64 2
  %12 = load i8, ptr %11, align 1
  %13 = zext i8 %12 to i32
  %14 = getelementptr inbounds nuw i8, ptr %.023, i64 3
  %15 = load i8, ptr %14, align 1
  %16 = zext i8 %15 to i32
  %17 = getelementptr inbounds nuw i8, ptr %.023, i64 4
  %18 = load i8, ptr %17, align 1
  %19 = zext i8 %18 to i32
  store i8 %7, ptr %.02122, align 1
  %20 = mul nuw nsw i32 %10, 192
  %21 = shl nuw nsw i32 %13, 6
  %22 = add nuw nsw i32 %20, 128
  %23 = add nuw nsw i32 %22, %21
  %24 = lshr i32 %23, 8
  %25 = trunc nuw i32 %24 to i8
  %26 = getelementptr inbounds nuw i8, ptr %.02122, i64 1
  store i8 %25, ptr %26, align 1
  %27 = add nuw nsw i32 %16, %13
  %28 = shl nuw nsw i32 %27, 7
  %29 = add nuw nsw i32 %28, 128
  %30 = lshr i32 %29, 8
  %31 = trunc nuw i32 %30 to i8
  %32 = getelementptr inbounds nuw i8, ptr %.02122, i64 2
  store i8 %31, ptr %32, align 1
  %33 = shl nuw nsw i32 %16, 6
  %34 = mul nuw nsw i32 %19, 192
  %35 = add nuw nsw i32 %33, 128
  %36 = add nuw nsw i32 %35, %34
  %37 = lshr i32 %36, 8
  %38 = trunc nuw i32 %37 to i8
  %39 = getelementptr inbounds nuw i8, ptr %.02122, i64 3
  store i8 %38, ptr %39, align 1
  %40 = getelementptr inbounds nuw i8, ptr %.023, i64 5
  %41 = getelementptr inbounds nuw i8, ptr %.02122, i64 4
  %42 = icmp ult ptr %40, %6
  br i1 %42, label %.lr.ph, label %._crit_edge, !llvm.loop !4

._crit_edge:                                      ; preds = %.lr.ph, %4
  ret void
}